; Function Attrs: mustprogress uwtable
define dso_local noundef zeroext i1 @_ZN17cmGlobalGenerator4OpenERKNSt7__cxx1112basic_stringIcSt11char_traitsIcESaIcEEES7_b(ptr nocapture noundef nonnull readonly align 8 dereferenceable(1778) %0, ptr noundef nonnull align 8 dereferenceable(32) %1, ptr noundef nonnull align 8 dereferenceable(32) %2, i1 noundef zeroext %3) unnamed_addr #3 align 2 {
  %5 = getelementptr inbounds i8, ptr %0, i64 1200
  %6 = load ptr, ptr %5, align 8
  %.not = icmp eq ptr %6, null
  br i1 %.not, label %12, label %7

7:                                                ; preds = %4
  %8 = load ptr, ptr %6, align 8
  %9 = getelementptr inbounds i8, ptr %8, i64 40
  %10 = load ptr, ptr %9, align 8
  %11 = tail call noundef zeroext i1 %10(ptr noundef nonnull align 8 dereferenceable(72) %6, ptr noundef nonnull align 8 dereferenceable(32) %1, ptr noundef nonnull align 8 dereferenceable(32) %2, i1 noundef zeroext %3)
  br label %12

12:                                               ; preds = %4, %7
  %.0 = phi i1 [ %11, %7 ], [ false, %4 ]
  ret i1 %.0
}